target datalayout = "e-m:e-p270:32:32-p271:32:32-p272:64:64-i64:64-i128:128-f80:128-n8:16:32:64-S128"
target triple = "x86_64-pc-linux-gnu"

%"struct.pkpy::LinkedListNode" = type { ptr, ptr }
%"struct.pkpy::MemoryPool.0" = type { %"struct.pkpy::DoubleLinkedList.1", %"struct.pkpy::DoubleLinkedList.1" }
%"struct.pkpy::DoubleLinkedList.1" = type { i32, %"struct.pkpy::LinkedListNode", %"struct.pkpy::LinkedListNode" }
%"class.std::__cxx11::basic_string" = type { %"struct.std::__cxx11::basic_string<char>::_Alloc_hider", i64, %union.anon }
%"struct.std::__cxx11::basic_string<char>::_Alloc_hider" = type { ptr }
%union.anon = type { i64, [8 x i8] }

@_ZN4pkpyL7pool128E = internal global %"struct.pkpy::MemoryPool.0" zeroinitializer, align 8

; Function Attrs: mustprogress nounwind uwtable
define void @_ZN4pkpy12pool128_infoB5cxx11Ev(ptr dead_on_unwind noalias writable sret(%"class.std::__cxx11::basic_string") align 8 %0) #5 personality ptr @__gxx_personality_v0 {
  %2 = alloca ptr, align 8
  store ptr %0, ptr %2, align 8
  invoke void @_ZN4pkpy10MemoryPoolILi128EE4infoB5cxx11Ev(ptr dead_on_unwind writable sret(%"class.std::__cxx11::basic_string") align 8 %0, ptr noundef nonnull align 8 dereferenceable(80) @_ZN4pkpyL7pool128E)
          to label %3 unwind label %4

3:                                                ; preds = %1
  ret void

4:                                                ; preds = %1
  %5 = landingpad { ptr, i32 }
          catch ptr null
  %6 = extractvalue { ptr, i32 } %5, 0
  call void @__clang_call_terminate(ptr %6) #12
  unreachable
}